
ext_int.elf:     file format elf32-avr

Sections:
Idx Name          Size      VMA       LMA       File off  Algn
  0 .data         00000000  00800200  00800200  00000b8c  2**0
                  CONTENTS, ALLOC, LOAD, DATA
  1 .text         00000b18  00000000  00000000  00000074  2**1
                  CONTENTS, ALLOC, LOAD, READONLY, CODE
  2 .bss          00000015  00800200  00800200  00000b8c  2**0
                  ALLOC
  3 .stab         00001854  00000000  00000000  00000b8c  2**2
                  CONTENTS, READONLY, DEBUGGING
  4 .stabstr      00001506  00000000  00000000  000023e0  2**0
                  CONTENTS, READONLY, DEBUGGING
  5 .comment      00000011  00000000  00000000  000038e6  2**0
                  CONTENTS, READONLY
  6 .note.gnu.avr.deviceinfo 00000040  00000000  00000000  000038f8  2**2
                  CONTENTS, READONLY

Disassembly of section .text:

00000000 <__vectors>:
   0:	73 c0       	rjmp	.+230    	; 0xe8 <__dtors_end>
   2:	00 00       	nop
   4:	78 c1       	rjmp	.+752    	; 0x2f6 <__vector_1>
   6:	00 00       	nop
   8:	ab c1       	rjmp	.+854    	; 0x360 <__vector_2>
   a:	00 00       	nop
   c:	de c1       	rjmp	.+956    	; 0x3ca <__vector_3>
   e:	00 00       	nop
  10:	11 c2       	rjmp	.+1058   	; 0x434 <__vector_4>
  12:	00 00       	nop
  14:	44 c2       	rjmp	.+1160   	; 0x49e <__vector_5>
  16:	00 00       	nop
  18:	77 c2       	rjmp	.+1262   	; 0x508 <__vector_6>
  1a:	00 00       	nop
  1c:	aa c2       	rjmp	.+1364   	; 0x572 <__vector_7>
  1e:	00 00       	nop
  20:	dd c2       	rjmp	.+1466   	; 0x5dc <__vector_8>
  22:	00 00       	nop
  24:	82 c0       	rjmp	.+260    	; 0x12a <__bad_interrupt>
  26:	00 00       	nop
  28:	80 c0       	rjmp	.+256    	; 0x12a <__bad_interrupt>
  2a:	00 00       	nop
  2c:	7e c0       	rjmp	.+252    	; 0x12a <__bad_interrupt>
  2e:	00 00       	nop
  30:	7c c0       	rjmp	.+248    	; 0x12a <__bad_interrupt>
  32:	00 00       	nop
  34:	7a c0       	rjmp	.+244    	; 0x12a <__bad_interrupt>
  36:	00 00       	nop
  38:	78 c0       	rjmp	.+240    	; 0x12a <__bad_interrupt>
  3a:	00 00       	nop
  3c:	76 c0       	rjmp	.+236    	; 0x12a <__bad_interrupt>
  3e:	00 00       	nop
  40:	74 c0       	rjmp	.+232    	; 0x12a <__bad_interrupt>
  42:	00 00       	nop
  44:	72 c0       	rjmp	.+228    	; 0x12a <__bad_interrupt>
  46:	00 00       	nop
  48:	70 c0       	rjmp	.+224    	; 0x12a <__bad_interrupt>
  4a:	00 00       	nop
  4c:	6e c0       	rjmp	.+220    	; 0x12a <__bad_interrupt>
  4e:	00 00       	nop
  50:	6c c0       	rjmp	.+216    	; 0x12a <__bad_interrupt>
  52:	00 00       	nop
  54:	6a c0       	rjmp	.+212    	; 0x12a <__bad_interrupt>
  56:	00 00       	nop
  58:	68 c0       	rjmp	.+208    	; 0x12a <__bad_interrupt>
  5a:	00 00       	nop
  5c:	66 c0       	rjmp	.+204    	; 0x12a <__bad_interrupt>
  5e:	00 00       	nop
  60:	64 c0       	rjmp	.+200    	; 0x12a <__bad_interrupt>
  62:	00 00       	nop
  64:	bc c4       	rjmp	.+2424   	; 0x9de <__vector_25>
  66:	00 00       	nop
  68:	eb c4       	rjmp	.+2518   	; 0xa40 <__vector_26>
  6a:	00 00       	nop
  6c:	5e c0       	rjmp	.+188    	; 0x12a <__bad_interrupt>
  6e:	00 00       	nop
  70:	5c c0       	rjmp	.+184    	; 0x12a <__bad_interrupt>
  72:	00 00       	nop
  74:	5a c0       	rjmp	.+180    	; 0x12a <__bad_interrupt>
  76:	00 00       	nop
  78:	58 c0       	rjmp	.+176    	; 0x12a <__bad_interrupt>
  7a:	00 00       	nop
  7c:	56 c0       	rjmp	.+172    	; 0x12a <__bad_interrupt>
  7e:	00 00       	nop
  80:	54 c0       	rjmp	.+168    	; 0x12a <__bad_interrupt>
  82:	00 00       	nop
  84:	52 c0       	rjmp	.+164    	; 0x12a <__bad_interrupt>
  86:	00 00       	nop
  88:	50 c0       	rjmp	.+160    	; 0x12a <__bad_interrupt>
  8a:	00 00       	nop
  8c:	4e c0       	rjmp	.+156    	; 0x12a <__bad_interrupt>
  8e:	00 00       	nop
  90:	4c c0       	rjmp	.+152    	; 0x12a <__bad_interrupt>
  92:	00 00       	nop
  94:	4a c0       	rjmp	.+148    	; 0x12a <__bad_interrupt>
  96:	00 00       	nop
  98:	48 c0       	rjmp	.+144    	; 0x12a <__bad_interrupt>
  9a:	00 00       	nop
  9c:	46 c0       	rjmp	.+140    	; 0x12a <__bad_interrupt>
  9e:	00 00       	nop
  a0:	44 c0       	rjmp	.+136    	; 0x12a <__bad_interrupt>
  a2:	00 00       	nop
  a4:	42 c0       	rjmp	.+132    	; 0x12a <__bad_interrupt>
  a6:	00 00       	nop
  a8:	40 c0       	rjmp	.+128    	; 0x12a <__bad_interrupt>
  aa:	00 00       	nop
  ac:	3e c0       	rjmp	.+124    	; 0x12a <__bad_interrupt>
  ae:	00 00       	nop
  b0:	3c c0       	rjmp	.+120    	; 0x12a <__bad_interrupt>
  b2:	00 00       	nop
  b4:	3a c0       	rjmp	.+116    	; 0x12a <__bad_interrupt>
  b6:	00 00       	nop
  b8:	38 c0       	rjmp	.+112    	; 0x12a <__bad_interrupt>
  ba:	00 00       	nop
  bc:	36 c0       	rjmp	.+108    	; 0x12a <__bad_interrupt>
  be:	00 00       	nop
  c0:	34 c0       	rjmp	.+104    	; 0x12a <__bad_interrupt>
  c2:	00 00       	nop
  c4:	32 c0       	rjmp	.+100    	; 0x12a <__bad_interrupt>
  c6:	00 00       	nop
  c8:	30 c0       	rjmp	.+96     	; 0x12a <__bad_interrupt>
  ca:	00 00       	nop
  cc:	2e c0       	rjmp	.+92     	; 0x12a <__bad_interrupt>
  ce:	00 00       	nop
  d0:	2c c0       	rjmp	.+88     	; 0x12a <__bad_interrupt>
  d2:	00 00       	nop
  d4:	2a c0       	rjmp	.+84     	; 0x12a <__bad_interrupt>
  d6:	00 00       	nop
  d8:	28 c0       	rjmp	.+80     	; 0x12a <__bad_interrupt>
  da:	00 00       	nop
  dc:	26 c0       	rjmp	.+76     	; 0x12a <__bad_interrupt>
  de:	00 00       	nop
  e0:	24 c0       	rjmp	.+72     	; 0x12a <__bad_interrupt>
	...

000000e4 <__ctors_start>:
  e4:	25 04       	cpc	r2, r5

000000e6 <__ctors_end>:
  e6:	31 04       	cpc	r3, r1

000000e8 <__dtors_end>:
  e8:	11 24       	eor	r1, r1
  ea:	1f be       	out	0x3f, r1	; 63
  ec:	cf ef       	ldi	r28, 0xFF	; 255
  ee:	d1 e2       	ldi	r29, 0x21	; 33
  f0:	de bf       	out	0x3e, r29	; 62
  f2:	cd bf       	out	0x3d, r28	; 61
  f4:	00 e0       	ldi	r16, 0x00	; 0
  f6:	0c bf       	out	0x3c, r16	; 60

000000f8 <__do_clear_bss>:
  f8:	22 e0       	ldi	r18, 0x02	; 2
  fa:	a0 e0       	ldi	r26, 0x00	; 0
  fc:	b2 e0       	ldi	r27, 0x02	; 2
  fe:	01 c0       	rjmp	.+2      	; 0x102 <.do_clear_bss_start>

00000100 <.do_clear_bss_loop>:
 100:	1d 92       	st	X+, r1

00000102 <.do_clear_bss_start>:
 102:	a5 31       	cpi	r26, 0x15	; 21
 104:	b2 07       	cpc	r27, r18
 106:	e1 f7       	brne	.-8      	; 0x100 <.do_clear_bss_loop>

00000108 <__do_global_ctors>:
 108:	10 e0       	ldi	r17, 0x00	; 0
 10a:	c3 e7       	ldi	r28, 0x73	; 115
 10c:	d0 e0       	ldi	r29, 0x00	; 0
 10e:	00 e0       	ldi	r16, 0x00	; 0
 110:	05 c0       	rjmp	.+10     	; 0x11c <__do_global_ctors+0x14>
 112:	21 97       	sbiw	r28, 0x01	; 1
 114:	01 09       	sbc	r16, r1
 116:	80 2f       	mov	r24, r16
 118:	fe 01       	movw	r30, r28
 11a:	e5 d4       	rcall	.+2506   	; 0xae6 <__tablejump2__>
 11c:	c2 37       	cpi	r28, 0x72	; 114
 11e:	d1 07       	cpc	r29, r17
 120:	80 e0       	ldi	r24, 0x00	; 0
 122:	08 07       	cpc	r16, r24
 124:	b1 f7       	brne	.-20     	; 0x112 <__do_global_ctors+0xa>
 126:	ef d2       	rcall	.+1502   	; 0x706 <main>
 128:	e6 c4       	rjmp	.+2508   	; 0xaf6 <__do_global_dtors>

0000012a <__bad_interrupt>:
 12a:	6a cf       	rjmp	.-300    	; 0x0 <__vectors>

0000012c <_ZN6EXTINT8callbackEv>:
		FALLING = 2,
		RISIGN = 3
	};

	EXTINT(INT_ID_t id, ISC_t cfg, CALLBACK_t _pCallback);
	void callback(){(* _pCallback)();};
 12c:	cf 93       	push	r28
 12e:	df 93       	push	r29
 130:	1f 92       	push	r1
 132:	1f 92       	push	r1
 134:	cd b7       	in	r28, 0x3d	; 61
 136:	de b7       	in	r29, 0x3e	; 62
 138:	9a 83       	std	Y+2, r25	; 0x02
 13a:	89 83       	std	Y+1, r24	; 0x01
 13c:	89 81       	ldd	r24, Y+1	; 0x01
 13e:	9a 81       	ldd	r25, Y+2	; 0x02
 140:	fc 01       	movw	r30, r24
 142:	80 81       	ld	r24, Z
 144:	91 81       	ldd	r25, Z+1	; 0x01
 146:	fc 01       	movw	r30, r24
 148:	19 95       	eicall
 14a:	0f 90       	pop	r0
 14c:	0f 90       	pop	r0
 14e:	df 91       	pop	r29
 150:	cf 91       	pop	r28
 152:	08 95       	ret

00000154 <_ZN6EXTINTC1ENS_8INT_ID_tENS_5ISC_tEPFvvE>:
#include "ext.h"

uint8_t mask;
EXTINT * EXTINT::_Extint_singletons[8];

EXTINT::EXTINT(INT_ID_t id, ISC_t cfg, CALLBACK_t callback){
 154:	cf 93       	push	r28
 156:	df 93       	push	r29
 158:	00 d0       	rcall	.+0      	; 0x15a <_ZN6EXTINTC1ENS_8INT_ID_tENS_5ISC_tEPFvvE+0x6>
 15a:	00 d0       	rcall	.+0      	; 0x15c <_ZN6EXTINTC1ENS_8INT_ID_tENS_5ISC_tEPFvvE+0x8>
 15c:	cd b7       	in	r28, 0x3d	; 61
 15e:	de b7       	in	r29, 0x3e	; 62
 160:	9a 83       	std	Y+2, r25	; 0x02
 162:	89 83       	std	Y+1, r24	; 0x01
 164:	6b 83       	std	Y+3, r22	; 0x03
 166:	4c 83       	std	Y+4, r20	; 0x04
 168:	3e 83       	std	Y+6, r19	; 0x06
 16a:	2d 83       	std	Y+5, r18	; 0x05
	_id = id;
 16c:	89 81       	ldd	r24, Y+1	; 0x01
 16e:	9a 81       	ldd	r25, Y+2	; 0x02
 170:	2b 81       	ldd	r18, Y+3	; 0x03
 172:	fc 01       	movw	r30, r24
 174:	22 83       	std	Z+2, r18	; 0x02

	mask = (_id % 4) << 1;
 176:	89 81       	ldd	r24, Y+1	; 0x01
 178:	9a 81       	ldd	r25, Y+2	; 0x02
 17a:	fc 01       	movw	r30, r24
 17c:	82 81       	ldd	r24, Z+2	; 0x02
 17e:	83 70       	andi	r24, 0x03	; 3
 180:	88 0f       	add	r24, r24
 182:	80 93 00 02 	sts	0x0200, r24	; 0x800200 <_edata>
	disable();
 186:	89 81       	ldd	r24, Y+1	; 0x01
 188:	9a 81       	ldd	r25, Y+2	; 0x02
 18a:	90 d0       	rcall	.+288    	; 0x2ac <_ZN6EXTINT7disableEv>

	if(_id<4){
 18c:	89 81       	ldd	r24, Y+1	; 0x01
 18e:	9a 81       	ldd	r25, Y+2	; 0x02
 190:	fc 01       	movw	r30, r24
 192:	82 81       	ldd	r24, Z+2	; 0x02
 194:	84 30       	cpi	r24, 0x04	; 4
 196:	20 f5       	brcc	.+72     	; 0x1e0 <_ZN6EXTINTC1ENS_8INT_ID_tENS_5ISC_tEPFvvE+0x8c>
		EICRA = (EICRA &~(3<<mask)) | (cfg << mask);
 198:	89 e6       	ldi	r24, 0x69	; 105
 19a:	90 e0       	ldi	r25, 0x00	; 0
 19c:	29 e6       	ldi	r18, 0x69	; 105
 19e:	30 e0       	ldi	r19, 0x00	; 0
 1a0:	f9 01       	movw	r30, r18
 1a2:	20 81       	ld	r18, Z
 1a4:	62 2f       	mov	r22, r18
 1a6:	20 91 00 02 	lds	r18, 0x0200	; 0x800200 <_edata>
 1aa:	42 2f       	mov	r20, r18
 1ac:	50 e0       	ldi	r21, 0x00	; 0
 1ae:	23 e0       	ldi	r18, 0x03	; 3
 1b0:	30 e0       	ldi	r19, 0x00	; 0
 1b2:	02 c0       	rjmp	.+4      	; 0x1b8 <_ZN6EXTINTC1ENS_8INT_ID_tENS_5ISC_tEPFvvE+0x64>
 1b4:	22 0f       	add	r18, r18
 1b6:	33 1f       	adc	r19, r19
 1b8:	4a 95       	dec	r20
 1ba:	e2 f7       	brpl	.-8      	; 0x1b4 <_ZN6EXTINTC1ENS_8INT_ID_tENS_5ISC_tEPFvvE+0x60>
 1bc:	20 95       	com	r18
 1be:	62 23       	and	r22, r18
 1c0:	2c 81       	ldd	r18, Y+4	; 0x04
 1c2:	22 2f       	mov	r18, r18
 1c4:	30 e0       	ldi	r19, 0x00	; 0
 1c6:	40 91 00 02 	lds	r20, 0x0200	; 0x800200 <_edata>
 1ca:	44 2f       	mov	r20, r20
 1cc:	50 e0       	ldi	r21, 0x00	; 0
 1ce:	02 c0       	rjmp	.+4      	; 0x1d4 <_ZN6EXTINTC1ENS_8INT_ID_tENS_5ISC_tEPFvvE+0x80>
 1d0:	22 0f       	add	r18, r18
 1d2:	33 1f       	adc	r19, r19
 1d4:	4a 95       	dec	r20
 1d6:	e2 f7       	brpl	.-8      	; 0x1d0 <_ZN6EXTINTC1ENS_8INT_ID_tENS_5ISC_tEPFvvE+0x7c>
 1d8:	26 2b       	or	r18, r22
 1da:	fc 01       	movw	r30, r24
 1dc:	20 83       	st	Z, r18
 1de:	23 c0       	rjmp	.+70     	; 0x226 <_ZN6EXTINTC1ENS_8INT_ID_tENS_5ISC_tEPFvvE+0xd2>
	} else {
		EICRB = (EICRB &~(3<<mask)) | (cfg << mask);
 1e0:	8a e6       	ldi	r24, 0x6A	; 106
 1e2:	90 e0       	ldi	r25, 0x00	; 0
 1e4:	2a e6       	ldi	r18, 0x6A	; 106
 1e6:	30 e0       	ldi	r19, 0x00	; 0
 1e8:	f9 01       	movw	r30, r18
 1ea:	20 81       	ld	r18, Z
 1ec:	62 2f       	mov	r22, r18
 1ee:	20 91 00 02 	lds	r18, 0x0200	; 0x800200 <_edata>
 1f2:	42 2f       	mov	r20, r18
 1f4:	50 e0       	ldi	r21, 0x00	; 0
 1f6:	23 e0       	ldi	r18, 0x03	; 3
 1f8:	30 e0       	ldi	r19, 0x00	; 0
 1fa:	02 c0       	rjmp	.+4      	; 0x200 <_ZN6EXTINTC1ENS_8INT_ID_tENS_5ISC_tEPFvvE+0xac>
 1fc:	22 0f       	add	r18, r18
 1fe:	33 1f       	adc	r19, r19
 200:	4a 95       	dec	r20
 202:	e2 f7       	brpl	.-8      	; 0x1fc <_ZN6EXTINTC1ENS_8INT_ID_tENS_5ISC_tEPFvvE+0xa8>
 204:	20 95       	com	r18
 206:	62 23       	and	r22, r18
 208:	2c 81       	ldd	r18, Y+4	; 0x04
 20a:	22 2f       	mov	r18, r18
 20c:	30 e0       	ldi	r19, 0x00	; 0
 20e:	40 91 00 02 	lds	r20, 0x0200	; 0x800200 <_edata>
 212:	44 2f       	mov	r20, r20
 214:	50 e0       	ldi	r21, 0x00	; 0
 216:	02 c0       	rjmp	.+4      	; 0x21c <_ZN6EXTINTC1ENS_8INT_ID_tENS_5ISC_tEPFvvE+0xc8>
 218:	22 0f       	add	r18, r18
 21a:	33 1f       	adc	r19, r19
 21c:	4a 95       	dec	r20
 21e:	e2 f7       	brpl	.-8      	; 0x218 <_ZN6EXTINTC1ENS_8INT_ID_tENS_5ISC_tEPFvvE+0xc4>
 220:	26 2b       	or	r18, r22
 222:	fc 01       	movw	r30, r24
 224:	20 83       	st	Z, r18
	}

	_pCallback = callback;
 226:	89 81       	ldd	r24, Y+1	; 0x01
 228:	9a 81       	ldd	r25, Y+2	; 0x02
 22a:	2d 81       	ldd	r18, Y+5	; 0x05
 22c:	3e 81       	ldd	r19, Y+6	; 0x06
 22e:	fc 01       	movw	r30, r24
 230:	31 83       	std	Z+1, r19	; 0x01
 232:	20 83       	st	Z, r18
	_Extint_singletons[_id] = this;
 234:	89 81       	ldd	r24, Y+1	; 0x01
 236:	9a 81       	ldd	r25, Y+2	; 0x02
 238:	fc 01       	movw	r30, r24
 23a:	82 81       	ldd	r24, Z+2	; 0x02
 23c:	88 2f       	mov	r24, r24
 23e:	90 e0       	ldi	r25, 0x00	; 0
 240:	88 0f       	add	r24, r24
 242:	99 1f       	adc	r25, r25
 244:	8f 5f       	subi	r24, 0xFF	; 255
 246:	9d 4f       	sbci	r25, 0xFD	; 253
 248:	29 81       	ldd	r18, Y+1	; 0x01
 24a:	3a 81       	ldd	r19, Y+2	; 0x02
 24c:	fc 01       	movw	r30, r24
 24e:	31 83       	std	Z+1, r19	; 0x01
 250:	20 83       	st	Z, r18
}
 252:	26 96       	adiw	r28, 0x06	; 6
 254:	0f b6       	in	r0, 0x3f	; 63
 256:	f8 94       	cli
 258:	de bf       	out	0x3e, r29	; 62
 25a:	0f be       	out	0x3f, r0	; 63
 25c:	cd bf       	out	0x3d, r28	; 61
 25e:	df 91       	pop	r29
 260:	cf 91       	pop	r28
 262:	08 95       	ret

00000264 <_ZN6EXTINT6enableEv>:


void EXTINT::enable(){
 264:	cf 93       	push	r28
 266:	df 93       	push	r29
 268:	1f 92       	push	r1
 26a:	1f 92       	push	r1
 26c:	cd b7       	in	r28, 0x3d	; 61
 26e:	de b7       	in	r29, 0x3e	; 62
 270:	9a 83       	std	Y+2, r25	; 0x02
 272:	89 83       	std	Y+1, r24	; 0x01
	EIMSK |= (1 << _id);
 274:	8d e3       	ldi	r24, 0x3D	; 61
 276:	90 e0       	ldi	r25, 0x00	; 0
 278:	2d e3       	ldi	r18, 0x3D	; 61
 27a:	30 e0       	ldi	r19, 0x00	; 0
 27c:	f9 01       	movw	r30, r18
 27e:	20 81       	ld	r18, Z
 280:	62 2f       	mov	r22, r18
 282:	29 81       	ldd	r18, Y+1	; 0x01
 284:	3a 81       	ldd	r19, Y+2	; 0x02
 286:	f9 01       	movw	r30, r18
 288:	22 81       	ldd	r18, Z+2	; 0x02
 28a:	42 2f       	mov	r20, r18
 28c:	50 e0       	ldi	r21, 0x00	; 0
 28e:	21 e0       	ldi	r18, 0x01	; 1
 290:	30 e0       	ldi	r19, 0x00	; 0
 292:	02 c0       	rjmp	.+4      	; 0x298 <_ZN6EXTINT6enableEv+0x34>
 294:	22 0f       	add	r18, r18
 296:	33 1f       	adc	r19, r19
 298:	4a 95       	dec	r20
 29a:	e2 f7       	brpl	.-8      	; 0x294 <_ZN6EXTINT6enableEv+0x30>
 29c:	26 2b       	or	r18, r22
 29e:	fc 01       	movw	r30, r24
 2a0:	20 83       	st	Z, r18
}
 2a2:	0f 90       	pop	r0
 2a4:	0f 90       	pop	r0
 2a6:	df 91       	pop	r29
 2a8:	cf 91       	pop	r28
 2aa:	08 95       	ret

000002ac <_ZN6EXTINT7disableEv>:

void EXTINT::disable(){
 2ac:	cf 93       	push	r28
 2ae:	df 93       	push	r29
 2b0:	1f 92       	push	r1
 2b2:	1f 92       	push	r1
 2b4:	cd b7       	in	r28, 0x3d	; 61
 2b6:	de b7       	in	r29, 0x3e	; 62
 2b8:	9a 83       	std	Y+2, r25	; 0x02
 2ba:	89 83       	std	Y+1, r24	; 0x01
	EIMSK &= ~(1 << _id);
 2bc:	8d e3       	ldi	r24, 0x3D	; 61
 2be:	90 e0       	ldi	r25, 0x00	; 0
 2c0:	2d e3       	ldi	r18, 0x3D	; 61
 2c2:	30 e0       	ldi	r19, 0x00	; 0
 2c4:	f9 01       	movw	r30, r18
 2c6:	20 81       	ld	r18, Z
 2c8:	62 2f       	mov	r22, r18
 2ca:	29 81       	ldd	r18, Y+1	; 0x01
 2cc:	3a 81       	ldd	r19, Y+2	; 0x02
 2ce:	f9 01       	movw	r30, r18
 2d0:	22 81       	ldd	r18, Z+2	; 0x02
 2d2:	42 2f       	mov	r20, r18
 2d4:	50 e0       	ldi	r21, 0x00	; 0
 2d6:	21 e0       	ldi	r18, 0x01	; 1
 2d8:	30 e0       	ldi	r19, 0x00	; 0
 2da:	02 c0       	rjmp	.+4      	; 0x2e0 <_ZN6EXTINT7disableEv+0x34>
 2dc:	22 0f       	add	r18, r18
 2de:	33 1f       	adc	r19, r19
 2e0:	4a 95       	dec	r20
 2e2:	e2 f7       	brpl	.-8      	; 0x2dc <_ZN6EXTINT7disableEv+0x30>
 2e4:	20 95       	com	r18
 2e6:	26 23       	and	r18, r22
 2e8:	fc 01       	movw	r30, r24
 2ea:	20 83       	st	Z, r18
}
 2ec:	0f 90       	pop	r0
 2ee:	0f 90       	pop	r0
 2f0:	df 91       	pop	r29
 2f2:	cf 91       	pop	r28
 2f4:	08 95       	ret

000002f6 <__vector_1>:

ISR(INT0_vect){
 2f6:	1f 92       	push	r1
 2f8:	0f 92       	push	r0
 2fa:	00 90 5f 00 	lds	r0, 0x005F	; 0x80005f <__TEXT_REGION_LENGTH__+0x70005f>
 2fe:	0f 92       	push	r0
 300:	11 24       	eor	r1, r1
 302:	00 90 5b 00 	lds	r0, 0x005B	; 0x80005b <__TEXT_REGION_LENGTH__+0x70005b>
 306:	0f 92       	push	r0
 308:	2f 93       	push	r18
 30a:	3f 93       	push	r19
 30c:	4f 93       	push	r20
 30e:	5f 93       	push	r21
 310:	6f 93       	push	r22
 312:	7f 93       	push	r23
 314:	8f 93       	push	r24
 316:	9f 93       	push	r25
 318:	af 93       	push	r26
 31a:	bf 93       	push	r27
 31c:	ef 93       	push	r30
 31e:	ff 93       	push	r31
 320:	cf 93       	push	r28
 322:	df 93       	push	r29
 324:	cd b7       	in	r28, 0x3d	; 61
 326:	de b7       	in	r29, 0x3e	; 62
	EXTINT::_Extint_singletons[0]->callback();
 328:	80 91 01 02 	lds	r24, 0x0201	; 0x800201 <_ZN6EXTINT18_Extint_singletonsE>
 32c:	90 91 02 02 	lds	r25, 0x0202	; 0x800202 <_ZN6EXTINT18_Extint_singletonsE+0x1>
 330:	fd de       	rcall	.-518    	; 0x12c <_ZN6EXTINT8callbackEv>
}
 332:	df 91       	pop	r29
 334:	cf 91       	pop	r28
 336:	ff 91       	pop	r31
 338:	ef 91       	pop	r30
 33a:	bf 91       	pop	r27
 33c:	af 91       	pop	r26
 33e:	9f 91       	pop	r25
 340:	8f 91       	pop	r24
 342:	7f 91       	pop	r23
 344:	6f 91       	pop	r22
 346:	5f 91       	pop	r21
 348:	4f 91       	pop	r20
 34a:	3f 91       	pop	r19
 34c:	2f 91       	pop	r18
 34e:	0f 90       	pop	r0
 350:	00 92 5b 00 	sts	0x005B, r0	; 0x80005b <__TEXT_REGION_LENGTH__+0x70005b>
 354:	0f 90       	pop	r0
 356:	00 92 5f 00 	sts	0x005F, r0	; 0x80005f <__TEXT_REGION_LENGTH__+0x70005f>
 35a:	0f 90       	pop	r0
 35c:	1f 90       	pop	r1
 35e:	18 95       	reti

00000360 <__vector_2>:

ISR(INT1_vect){
 360:	1f 92       	push	r1
 362:	0f 92       	push	r0
 364:	00 90 5f 00 	lds	r0, 0x005F	; 0x80005f <__TEXT_REGION_LENGTH__+0x70005f>
 368:	0f 92       	push	r0
 36a:	11 24       	eor	r1, r1
 36c:	00 90 5b 00 	lds	r0, 0x005B	; 0x80005b <__TEXT_REGION_LENGTH__+0x70005b>
 370:	0f 92       	push	r0
 372:	2f 93       	push	r18
 374:	3f 93       	push	r19
 376:	4f 93       	push	r20
 378:	5f 93       	push	r21
 37a:	6f 93       	push	r22
 37c:	7f 93       	push	r23
 37e:	8f 93       	push	r24
 380:	9f 93       	push	r25
 382:	af 93       	push	r26
 384:	bf 93       	push	r27
 386:	ef 93       	push	r30
 388:	ff 93       	push	r31
 38a:	cf 93       	push	r28
 38c:	df 93       	push	r29
 38e:	cd b7       	in	r28, 0x3d	; 61
 390:	de b7       	in	r29, 0x3e	; 62
	EXTINT::_Extint_singletons[1]->callback();
 392:	80 91 03 02 	lds	r24, 0x0203	; 0x800203 <_ZN6EXTINT18_Extint_singletonsE+0x2>
 396:	90 91 04 02 	lds	r25, 0x0204	; 0x800204 <_ZN6EXTINT18_Extint_singletonsE+0x3>
 39a:	c8 de       	rcall	.-624    	; 0x12c <_ZN6EXTINT8callbackEv>
}
 39c:	df 91       	pop	r29
 39e:	cf 91       	pop	r28
 3a0:	ff 91       	pop	r31
 3a2:	ef 91       	pop	r30
 3a4:	bf 91       	pop	r27
 3a6:	af 91       	pop	r26
 3a8:	9f 91       	pop	r25
 3aa:	8f 91       	pop	r24
 3ac:	7f 91       	pop	r23
 3ae:	6f 91       	pop	r22
 3b0:	5f 91       	pop	r21
 3b2:	4f 91       	pop	r20
 3b4:	3f 91       	pop	r19
 3b6:	2f 91       	pop	r18
 3b8:	0f 90       	pop	r0
 3ba:	00 92 5b 00 	sts	0x005B, r0	; 0x80005b <__TEXT_REGION_LENGTH__+0x70005b>
 3be:	0f 90       	pop	r0
 3c0:	00 92 5f 00 	sts	0x005F, r0	; 0x80005f <__TEXT_REGION_LENGTH__+0x70005f>
 3c4:	0f 90       	pop	r0
 3c6:	1f 90       	pop	r1
 3c8:	18 95       	reti

000003ca <__vector_3>:

ISR(INT2_vect){
 3ca:	1f 92       	push	r1
 3cc:	0f 92       	push	r0
 3ce:	00 90 5f 00 	lds	r0, 0x005F	; 0x80005f <__TEXT_REGION_LENGTH__+0x70005f>
 3d2:	0f 92       	push	r0
 3d4:	11 24       	eor	r1, r1
 3d6:	00 90 5b 00 	lds	r0, 0x005B	; 0x80005b <__TEXT_REGION_LENGTH__+0x70005b>
 3da:	0f 92       	push	r0
 3dc:	2f 93       	push	r18
 3de:	3f 93       	push	r19
 3e0:	4f 93       	push	r20
 3e2:	5f 93       	push	r21
 3e4:	6f 93       	push	r22
 3e6:	7f 93       	push	r23
 3e8:	8f 93       	push	r24
 3ea:	9f 93       	push	r25
 3ec:	af 93       	push	r26
 3ee:	bf 93       	push	r27
 3f0:	ef 93       	push	r30
 3f2:	ff 93       	push	r31
 3f4:	cf 93       	push	r28
 3f6:	df 93       	push	r29
 3f8:	cd b7       	in	r28, 0x3d	; 61
 3fa:	de b7       	in	r29, 0x3e	; 62
	EXTINT::_Extint_singletons[2]->callback();
 3fc:	80 91 05 02 	lds	r24, 0x0205	; 0x800205 <_ZN6EXTINT18_Extint_singletonsE+0x4>
 400:	90 91 06 02 	lds	r25, 0x0206	; 0x800206 <_ZN6EXTINT18_Extint_singletonsE+0x5>
 404:	93 de       	rcall	.-730    	; 0x12c <_ZN6EXTINT8callbackEv>
}
 406:	df 91       	pop	r29
 408:	cf 91       	pop	r28
 40a:	ff 91       	pop	r31
 40c:	ef 91       	pop	r30
 40e:	bf 91       	pop	r27
 410:	af 91       	pop	r26
 412:	9f 91       	pop	r25
 414:	8f 91       	pop	r24
 416:	7f 91       	pop	r23
 418:	6f 91       	pop	r22
 41a:	5f 91       	pop	r21
 41c:	4f 91       	pop	r20
 41e:	3f 91       	pop	r19
 420:	2f 91       	pop	r18
 422:	0f 90       	pop	r0
 424:	00 92 5b 00 	sts	0x005B, r0	; 0x80005b <__TEXT_REGION_LENGTH__+0x70005b>
 428:	0f 90       	pop	r0
 42a:	00 92 5f 00 	sts	0x005F, r0	; 0x80005f <__TEXT_REGION_LENGTH__+0x70005f>
 42e:	0f 90       	pop	r0
 430:	1f 90       	pop	r1
 432:	18 95       	reti

00000434 <__vector_4>:

ISR(INT3_vect){
 434:	1f 92       	push	r1
 436:	0f 92       	push	r0
 438:	00 90 5f 00 	lds	r0, 0x005F	; 0x80005f <__TEXT_REGION_LENGTH__+0x70005f>
 43c:	0f 92       	push	r0
 43e:	11 24       	eor	r1, r1
 440:	00 90 5b 00 	lds	r0, 0x005B	; 0x80005b <__TEXT_REGION_LENGTH__+0x70005b>
 444:	0f 92       	push	r0
 446:	2f 93       	push	r18
 448:	3f 93       	push	r19
 44a:	4f 93       	push	r20
 44c:	5f 93       	push	r21
 44e:	6f 93       	push	r22
 450:	7f 93       	push	r23
 452:	8f 93       	push	r24
 454:	9f 93       	push	r25
 456:	af 93       	push	r26
 458:	bf 93       	push	r27
 45a:	ef 93       	push	r30
 45c:	ff 93       	push	r31
 45e:	cf 93       	push	r28
 460:	df 93       	push	r29
 462:	cd b7       	in	r28, 0x3d	; 61
 464:	de b7       	in	r29, 0x3e	; 62
	EXTINT::_Extint_singletons[3]->callback();
 466:	80 91 07 02 	lds	r24, 0x0207	; 0x800207 <_ZN6EXTINT18_Extint_singletonsE+0x6>
 46a:	90 91 08 02 	lds	r25, 0x0208	; 0x800208 <_ZN6EXTINT18_Extint_singletonsE+0x7>
 46e:	5e de       	rcall	.-836    	; 0x12c <_ZN6EXTINT8callbackEv>
}
 470:	df 91       	pop	r29
 472:	cf 91       	pop	r28
 474:	ff 91       	pop	r31
 476:	ef 91       	pop	r30
 478:	bf 91       	pop	r27
 47a:	af 91       	pop	r26
 47c:	9f 91       	pop	r25
 47e:	8f 91       	pop	r24
 480:	7f 91       	pop	r23
 482:	6f 91       	pop	r22
 484:	5f 91       	pop	r21
 486:	4f 91       	pop	r20
 488:	3f 91       	pop	r19
 48a:	2f 91       	pop	r18
 48c:	0f 90       	pop	r0
 48e:	00 92 5b 00 	sts	0x005B, r0	; 0x80005b <__TEXT_REGION_LENGTH__+0x70005b>
 492:	0f 90       	pop	r0
 494:	00 92 5f 00 	sts	0x005F, r0	; 0x80005f <__TEXT_REGION_LENGTH__+0x70005f>
 498:	0f 90       	pop	r0
 49a:	1f 90       	pop	r1
 49c:	18 95       	reti

0000049e <__vector_5>:

ISR(INT4_vect){
 49e:	1f 92       	push	r1
 4a0:	0f 92       	push	r0
 4a2:	00 90 5f 00 	lds	r0, 0x005F	; 0x80005f <__TEXT_REGION_LENGTH__+0x70005f>
 4a6:	0f 92       	push	r0
 4a8:	11 24       	eor	r1, r1
 4aa:	00 90 5b 00 	lds	r0, 0x005B	; 0x80005b <__TEXT_REGION_LENGTH__+0x70005b>
 4ae:	0f 92       	push	r0
 4b0:	2f 93       	push	r18
 4b2:	3f 93       	push	r19
 4b4:	4f 93       	push	r20
 4b6:	5f 93       	push	r21
 4b8:	6f 93       	push	r22
 4ba:	7f 93       	push	r23
 4bc:	8f 93       	push	r24
 4be:	9f 93       	push	r25
 4c0:	af 93       	push	r26
 4c2:	bf 93       	push	r27
 4c4:	ef 93       	push	r30
 4c6:	ff 93       	push	r31
 4c8:	cf 93       	push	r28
 4ca:	df 93       	push	r29
 4cc:	cd b7       	in	r28, 0x3d	; 61
 4ce:	de b7       	in	r29, 0x3e	; 62
	EXTINT::_Extint_singletons[4]->callback();
 4d0:	80 91 09 02 	lds	r24, 0x0209	; 0x800209 <_ZN6EXTINT18_Extint_singletonsE+0x8>
 4d4:	90 91 0a 02 	lds	r25, 0x020A	; 0x80020a <_ZN6EXTINT18_Extint_singletonsE+0x9>
 4d8:	29 de       	rcall	.-942    	; 0x12c <_ZN6EXTINT8callbackEv>
}
 4da:	df 91       	pop	r29
 4dc:	cf 91       	pop	r28
 4de:	ff 91       	pop	r31
 4e0:	ef 91       	pop	r30
 4e2:	bf 91       	pop	r27
 4e4:	af 91       	pop	r26
 4e6:	9f 91       	pop	r25
 4e8:	8f 91       	pop	r24
 4ea:	7f 91       	pop	r23
 4ec:	6f 91       	pop	r22
 4ee:	5f 91       	pop	r21
 4f0:	4f 91       	pop	r20
 4f2:	3f 91       	pop	r19
 4f4:	2f 91       	pop	r18
 4f6:	0f 90       	pop	r0
 4f8:	00 92 5b 00 	sts	0x005B, r0	; 0x80005b <__TEXT_REGION_LENGTH__+0x70005b>
 4fc:	0f 90       	pop	r0
 4fe:	00 92 5f 00 	sts	0x005F, r0	; 0x80005f <__TEXT_REGION_LENGTH__+0x70005f>
 502:	0f 90       	pop	r0
 504:	1f 90       	pop	r1
 506:	18 95       	reti

00000508 <__vector_6>:

ISR(INT5_vect){
 508:	1f 92       	push	r1
 50a:	0f 92       	push	r0
 50c:	00 90 5f 00 	lds	r0, 0x005F	; 0x80005f <__TEXT_REGION_LENGTH__+0x70005f>
 510:	0f 92       	push	r0
 512:	11 24       	eor	r1, r1
 514:	00 90 5b 00 	lds	r0, 0x005B	; 0x80005b <__TEXT_REGION_LENGTH__+0x70005b>
 518:	0f 92       	push	r0
 51a:	2f 93       	push	r18
 51c:	3f 93       	push	r19
 51e:	4f 93       	push	r20
 520:	5f 93       	push	r21
 522:	6f 93       	push	r22
 524:	7f 93       	push	r23
 526:	8f 93       	push	r24
 528:	9f 93       	push	r25
 52a:	af 93       	push	r26
 52c:	bf 93       	push	r27
 52e:	ef 93       	push	r30
 530:	ff 93       	push	r31
 532:	cf 93       	push	r28
 534:	df 93       	push	r29
 536:	cd b7       	in	r28, 0x3d	; 61
 538:	de b7       	in	r29, 0x3e	; 62
	EXTINT::_Extint_singletons[5]->callback();
 53a:	80 91 0b 02 	lds	r24, 0x020B	; 0x80020b <_ZN6EXTINT18_Extint_singletonsE+0xa>
 53e:	90 91 0c 02 	lds	r25, 0x020C	; 0x80020c <_ZN6EXTINT18_Extint_singletonsE+0xb>
 542:	f4 dd       	rcall	.-1048   	; 0x12c <_ZN6EXTINT8callbackEv>
}
 544:	df 91       	pop	r29
 546:	cf 91       	pop	r28
 548:	ff 91       	pop	r31
 54a:	ef 91       	pop	r30
 54c:	bf 91       	pop	r27
 54e:	af 91       	pop	r26
 550:	9f 91       	pop	r25
 552:	8f 91       	pop	r24
 554:	7f 91       	pop	r23
 556:	6f 91       	pop	r22
 558:	5f 91       	pop	r21
 55a:	4f 91       	pop	r20
 55c:	3f 91       	pop	r19
 55e:	2f 91       	pop	r18
 560:	0f 90       	pop	r0
 562:	00 92 5b 00 	sts	0x005B, r0	; 0x80005b <__TEXT_REGION_LENGTH__+0x70005b>
 566:	0f 90       	pop	r0
 568:	00 92 5f 00 	sts	0x005F, r0	; 0x80005f <__TEXT_REGION_LENGTH__+0x70005f>
 56c:	0f 90       	pop	r0
 56e:	1f 90       	pop	r1
 570:	18 95       	reti

00000572 <__vector_7>:

ISR(INT6_vect){
 572:	1f 92       	push	r1
 574:	0f 92       	push	r0
 576:	00 90 5f 00 	lds	r0, 0x005F	; 0x80005f <__TEXT_REGION_LENGTH__+0x70005f>
 57a:	0f 92       	push	r0
 57c:	11 24       	eor	r1, r1
 57e:	00 90 5b 00 	lds	r0, 0x005B	; 0x80005b <__TEXT_REGION_LENGTH__+0x70005b>
 582:	0f 92       	push	r0
 584:	2f 93       	push	r18
 586:	3f 93       	push	r19
 588:	4f 93       	push	r20
 58a:	5f 93       	push	r21
 58c:	6f 93       	push	r22
 58e:	7f 93       	push	r23
 590:	8f 93       	push	r24
 592:	9f 93       	push	r25
 594:	af 93       	push	r26
 596:	bf 93       	push	r27
 598:	ef 93       	push	r30
 59a:	ff 93       	push	r31
 59c:	cf 93       	push	r28
 59e:	df 93       	push	r29
 5a0:	cd b7       	in	r28, 0x3d	; 61
 5a2:	de b7       	in	r29, 0x3e	; 62
	EXTINT::_Extint_singletons[6]->callback();
 5a4:	80 91 0d 02 	lds	r24, 0x020D	; 0x80020d <_ZN6EXTINT18_Extint_singletonsE+0xc>
 5a8:	90 91 0e 02 	lds	r25, 0x020E	; 0x80020e <_ZN6EXTINT18_Extint_singletonsE+0xd>
 5ac:	bf dd       	rcall	.-1154   	; 0x12c <_ZN6EXTINT8callbackEv>
}
 5ae:	df 91       	pop	r29
 5b0:	cf 91       	pop	r28
 5b2:	ff 91       	pop	r31
 5b4:	ef 91       	pop	r30
 5b6:	bf 91       	pop	r27
 5b8:	af 91       	pop	r26
 5ba:	9f 91       	pop	r25
 5bc:	8f 91       	pop	r24
 5be:	7f 91       	pop	r23
 5c0:	6f 91       	pop	r22
 5c2:	5f 91       	pop	r21
 5c4:	4f 91       	pop	r20
 5c6:	3f 91       	pop	r19
 5c8:	2f 91       	pop	r18
 5ca:	0f 90       	pop	r0
 5cc:	00 92 5b 00 	sts	0x005B, r0	; 0x80005b <__TEXT_REGION_LENGTH__+0x70005b>
 5d0:	0f 90       	pop	r0
 5d2:	00 92 5f 00 	sts	0x005F, r0	; 0x80005f <__TEXT_REGION_LENGTH__+0x70005f>
 5d6:	0f 90       	pop	r0
 5d8:	1f 90       	pop	r1
 5da:	18 95       	reti

000005dc <__vector_8>:

ISR(INT7_vect){
 5dc:	1f 92       	push	r1
 5de:	0f 92       	push	r0
 5e0:	00 90 5f 00 	lds	r0, 0x005F	; 0x80005f <__TEXT_REGION_LENGTH__+0x70005f>
 5e4:	0f 92       	push	r0
 5e6:	11 24       	eor	r1, r1
 5e8:	00 90 5b 00 	lds	r0, 0x005B	; 0x80005b <__TEXT_REGION_LENGTH__+0x70005b>
 5ec:	0f 92       	push	r0
 5ee:	2f 93       	push	r18
 5f0:	3f 93       	push	r19
 5f2:	4f 93       	push	r20
 5f4:	5f 93       	push	r21
 5f6:	6f 93       	push	r22
 5f8:	7f 93       	push	r23
 5fa:	8f 93       	push	r24
 5fc:	9f 93       	push	r25
 5fe:	af 93       	push	r26
 600:	bf 93       	push	r27
 602:	ef 93       	push	r30
 604:	ff 93       	push	r31
 606:	cf 93       	push	r28
 608:	df 93       	push	r29
 60a:	cd b7       	in	r28, 0x3d	; 61
 60c:	de b7       	in	r29, 0x3e	; 62
	EXTINT::_Extint_singletons[7]->callback();
 60e:	80 91 0f 02 	lds	r24, 0x020F	; 0x80020f <_ZN6EXTINT18_Extint_singletonsE+0xe>
 612:	90 91 10 02 	lds	r25, 0x0210	; 0x800210 <_ZN6EXTINT18_Extint_singletonsE+0xf>
 616:	8a dd       	rcall	.-1260   	; 0x12c <_ZN6EXTINT8callbackEv>
}
 618:	df 91       	pop	r29
 61a:	cf 91       	pop	r28
 61c:	ff 91       	pop	r31
 61e:	ef 91       	pop	r30
 620:	bf 91       	pop	r27
 622:	af 91       	pop	r26
 624:	9f 91       	pop	r25
 626:	8f 91       	pop	r24
 628:	7f 91       	pop	r23
 62a:	6f 91       	pop	r22
 62c:	5f 91       	pop	r21
 62e:	4f 91       	pop	r20
 630:	3f 91       	pop	r19
 632:	2f 91       	pop	r18
 634:	0f 90       	pop	r0
 636:	00 92 5b 00 	sts	0x005B, r0	; 0x80005b <__TEXT_REGION_LENGTH__+0x70005b>
 63a:	0f 90       	pop	r0
 63c:	00 92 5f 00 	sts	0x005F, r0	; 0x80005f <__TEXT_REGION_LENGTH__+0x70005f>
 640:	0f 90       	pop	r0
 642:	1f 90       	pop	r1
 644:	18 95       	reti

00000646 <_Z12int0_handlerv>:
#include "uart.h"


UART uart(19200, UART::DATABITS_8, UART::NONE, UART::STOPBIT_1);

void int0_handler(void){
 646:	cf 93       	push	r28
 648:	df 93       	push	r29
 64a:	cd b7       	in	r28, 0x3d	; 61
 64c:	de b7       	in	r29, 0x3e	; 62
	uart.put('0');
 64e:	60 e3       	ldi	r22, 0x30	; 48
 650:	81 e1       	ldi	r24, 0x11	; 17
 652:	92 e0       	ldi	r25, 0x02	; 2
 654:	75 d1       	rcall	.+746    	; 0x940 <_ZN4UART3putEh>
	return;
 656:	00 00       	nop
}
 658:	df 91       	pop	r29
 65a:	cf 91       	pop	r28
 65c:	08 95       	ret

0000065e <_Z12int1_handlerv>:

void int1_handler(void){
 65e:	cf 93       	push	r28
 660:	df 93       	push	r29
 662:	cd b7       	in	r28, 0x3d	; 61
 664:	de b7       	in	r29, 0x3e	; 62
	uart.put('1');
 666:	61 e3       	ldi	r22, 0x31	; 49
 668:	81 e1       	ldi	r24, 0x11	; 17
 66a:	92 e0       	ldi	r25, 0x02	; 2
 66c:	69 d1       	rcall	.+722    	; 0x940 <_ZN4UART3putEh>
	return;
 66e:	00 00       	nop
}
 670:	df 91       	pop	r29
 672:	cf 91       	pop	r28
 674:	08 95       	ret

00000676 <_Z12int2_handlerv>:

void int2_handler(void){
 676:	cf 93       	push	r28
 678:	df 93       	push	r29
 67a:	cd b7       	in	r28, 0x3d	; 61
 67c:	de b7       	in	r29, 0x3e	; 62
	uart.put('2');
 67e:	62 e3       	ldi	r22, 0x32	; 50
 680:	81 e1       	ldi	r24, 0x11	; 17
 682:	92 e0       	ldi	r25, 0x02	; 2
 684:	5d d1       	rcall	.+698    	; 0x940 <_ZN4UART3putEh>
	return;
 686:	00 00       	nop
}
 688:	df 91       	pop	r29
 68a:	cf 91       	pop	r28
 68c:	08 95       	ret

0000068e <_Z12int3_handlerv>:

void int3_handler(void){
 68e:	cf 93       	push	r28
 690:	df 93       	push	r29
 692:	cd b7       	in	r28, 0x3d	; 61
 694:	de b7       	in	r29, 0x3e	; 62
	uart.put('3');
 696:	63 e3       	ldi	r22, 0x33	; 51
 698:	81 e1       	ldi	r24, 0x11	; 17
 69a:	92 e0       	ldi	r25, 0x02	; 2
 69c:	51 d1       	rcall	.+674    	; 0x940 <_ZN4UART3putEh>
	return;
 69e:	00 00       	nop
}
 6a0:	df 91       	pop	r29
 6a2:	cf 91       	pop	r28
 6a4:	08 95       	ret

000006a6 <_Z12int4_handlerv>:

void int4_handler(void){
 6a6:	cf 93       	push	r28
 6a8:	df 93       	push	r29
 6aa:	cd b7       	in	r28, 0x3d	; 61
 6ac:	de b7       	in	r29, 0x3e	; 62
	uart.put('4');
 6ae:	64 e3       	ldi	r22, 0x34	; 52
 6b0:	81 e1       	ldi	r24, 0x11	; 17
 6b2:	92 e0       	ldi	r25, 0x02	; 2
 6b4:	45 d1       	rcall	.+650    	; 0x940 <_ZN4UART3putEh>
	return;
 6b6:	00 00       	nop
}
 6b8:	df 91       	pop	r29
 6ba:	cf 91       	pop	r28
 6bc:	08 95       	ret

000006be <_Z12int5_handlerv>:

void int5_handler(void){
 6be:	cf 93       	push	r28
 6c0:	df 93       	push	r29
 6c2:	cd b7       	in	r28, 0x3d	; 61
 6c4:	de b7       	in	r29, 0x3e	; 62
	uart.put('5');
 6c6:	65 e3       	ldi	r22, 0x35	; 53
 6c8:	81 e1       	ldi	r24, 0x11	; 17
 6ca:	92 e0       	ldi	r25, 0x02	; 2
 6cc:	39 d1       	rcall	.+626    	; 0x940 <_ZN4UART3putEh>
	return;
 6ce:	00 00       	nop
}
 6d0:	df 91       	pop	r29
 6d2:	cf 91       	pop	r28
 6d4:	08 95       	ret

000006d6 <_Z12int6_handlerv>:

void int6_handler(void){
 6d6:	cf 93       	push	r28
 6d8:	df 93       	push	r29
 6da:	cd b7       	in	r28, 0x3d	; 61
 6dc:	de b7       	in	r29, 0x3e	; 62
	uart.put('6');
 6de:	66 e3       	ldi	r22, 0x36	; 54
 6e0:	81 e1       	ldi	r24, 0x11	; 17
 6e2:	92 e0       	ldi	r25, 0x02	; 2
 6e4:	2d d1       	rcall	.+602    	; 0x940 <_ZN4UART3putEh>
	return;
 6e6:	00 00       	nop
}
 6e8:	df 91       	pop	r29
 6ea:	cf 91       	pop	r28
 6ec:	08 95       	ret

000006ee <_Z12int7_handlerv>:

void int7_handler(void){
 6ee:	cf 93       	push	r28
 6f0:	df 93       	push	r29
 6f2:	cd b7       	in	r28, 0x3d	; 61
 6f4:	de b7       	in	r29, 0x3e	; 62
	uart.put('7');
 6f6:	67 e3       	ldi	r22, 0x37	; 55
 6f8:	81 e1       	ldi	r24, 0x11	; 17
 6fa:	92 e0       	ldi	r25, 0x02	; 2
 6fc:	21 d1       	rcall	.+578    	; 0x940 <_ZN4UART3putEh>
	return;
 6fe:	00 00       	nop
}
 700:	df 91       	pop	r29
 702:	cf 91       	pop	r28
 704:	08 95       	ret

00000706 <main>:

int main( void ){
 706:	cf 93       	push	r28
 708:	df 93       	push	r29
 70a:	cd b7       	in	r28, 0x3d	; 61
 70c:	de b7       	in	r29, 0x3e	; 62
 70e:	68 97       	sbiw	r28, 0x18	; 24
 710:	0f b6       	in	r0, 0x3f	; 63
 712:	f8 94       	cli
 714:	de bf       	out	0x3e, r29	; 62
 716:	0f be       	out	0x3f, r0	; 63
 718:	cd bf       	out	0x3d, r28	; 61

	EXTINT int0_obj(EXTINT::INT_0, EXTINT::FALLING, &int0_handler);
 71a:	23 e2       	ldi	r18, 0x23	; 35
 71c:	33 e0       	ldi	r19, 0x03	; 3
 71e:	42 e0       	ldi	r20, 0x02	; 2
 720:	60 e0       	ldi	r22, 0x00	; 0
 722:	ce 01       	movw	r24, r28
 724:	01 96       	adiw	r24, 0x01	; 1
 726:	16 dd       	rcall	.-1492   	; 0x154 <_ZN6EXTINTC1ENS_8INT_ID_tENS_5ISC_tEPFvvE>
	EXTINT int1_obj(EXTINT::INT_1, EXTINT::FALLING, &int1_handler);
 728:	ce 01       	movw	r24, r28
 72a:	04 96       	adiw	r24, 0x04	; 4
 72c:	2f e2       	ldi	r18, 0x2F	; 47
 72e:	33 e0       	ldi	r19, 0x03	; 3
 730:	42 e0       	ldi	r20, 0x02	; 2
 732:	61 e0       	ldi	r22, 0x01	; 1
 734:	0f dd       	rcall	.-1506   	; 0x154 <_ZN6EXTINTC1ENS_8INT_ID_tENS_5ISC_tEPFvvE>
	EXTINT int2_obj(EXTINT::INT_2, EXTINT::FALLING, &int2_handler);
 736:	ce 01       	movw	r24, r28
 738:	07 96       	adiw	r24, 0x07	; 7
 73a:	2b e3       	ldi	r18, 0x3B	; 59
 73c:	33 e0       	ldi	r19, 0x03	; 3
 73e:	42 e0       	ldi	r20, 0x02	; 2
 740:	62 e0       	ldi	r22, 0x02	; 2
 742:	08 dd       	rcall	.-1520   	; 0x154 <_ZN6EXTINTC1ENS_8INT_ID_tENS_5ISC_tEPFvvE>
	EXTINT int3_obj(EXTINT::INT_3, EXTINT::FALLING, &int3_handler);
 744:	ce 01       	movw	r24, r28
 746:	0a 96       	adiw	r24, 0x0a	; 10
 748:	27 e4       	ldi	r18, 0x47	; 71
 74a:	33 e0       	ldi	r19, 0x03	; 3
 74c:	42 e0       	ldi	r20, 0x02	; 2
 74e:	63 e0       	ldi	r22, 0x03	; 3
 750:	01 dd       	rcall	.-1534   	; 0x154 <_ZN6EXTINTC1ENS_8INT_ID_tENS_5ISC_tEPFvvE>
	EXTINT int4_obj(EXTINT::INT_4, EXTINT::FALLING, &int4_handler);
 752:	ce 01       	movw	r24, r28
 754:	0d 96       	adiw	r24, 0x0d	; 13
 756:	23 e5       	ldi	r18, 0x53	; 83
 758:	33 e0       	ldi	r19, 0x03	; 3
 75a:	42 e0       	ldi	r20, 0x02	; 2
 75c:	64 e0       	ldi	r22, 0x04	; 4
 75e:	fa dc       	rcall	.-1548   	; 0x154 <_ZN6EXTINTC1ENS_8INT_ID_tENS_5ISC_tEPFvvE>
	EXTINT int5_obj(EXTINT::INT_5, EXTINT::FALLING, &int5_handler);
 760:	ce 01       	movw	r24, r28
 762:	40 96       	adiw	r24, 0x10	; 16
 764:	2f e5       	ldi	r18, 0x5F	; 95
 766:	33 e0       	ldi	r19, 0x03	; 3
 768:	42 e0       	ldi	r20, 0x02	; 2
 76a:	65 e0       	ldi	r22, 0x05	; 5
 76c:	f3 dc       	rcall	.-1562   	; 0x154 <_ZN6EXTINTC1ENS_8INT_ID_tENS_5ISC_tEPFvvE>
	EXTINT int6_obj(EXTINT::INT_6, EXTINT::FALLING, &int6_handler);
 76e:	ce 01       	movw	r24, r28
 770:	43 96       	adiw	r24, 0x13	; 19
 772:	2b e6       	ldi	r18, 0x6B	; 107
 774:	33 e0       	ldi	r19, 0x03	; 3
 776:	42 e0       	ldi	r20, 0x02	; 2
 778:	66 e0       	ldi	r22, 0x06	; 6
 77a:	ec dc       	rcall	.-1576   	; 0x154 <_ZN6EXTINTC1ENS_8INT_ID_tENS_5ISC_tEPFvvE>
	EXTINT int7_obj(EXTINT::INT_7, EXTINT::FALLING, &int7_handler);
 77c:	ce 01       	movw	r24, r28
 77e:	46 96       	adiw	r24, 0x16	; 22
 780:	27 e7       	ldi	r18, 0x77	; 119
 782:	33 e0       	ldi	r19, 0x03	; 3
 784:	42 e0       	ldi	r20, 0x02	; 2
 786:	67 e0       	ldi	r22, 0x07	; 7
 788:	e5 dc       	rcall	.-1590   	; 0x154 <_ZN6EXTINTC1ENS_8INT_ID_tENS_5ISC_tEPFvvE>

	int0_obj.enable();
 78a:	ce 01       	movw	r24, r28
 78c:	01 96       	adiw	r24, 0x01	; 1
 78e:	6a dd       	rcall	.-1324   	; 0x264 <_ZN6EXTINT6enableEv>
	int1_obj.enable();
 790:	ce 01       	movw	r24, r28
 792:	04 96       	adiw	r24, 0x04	; 4
 794:	67 dd       	rcall	.-1330   	; 0x264 <_ZN6EXTINT6enableEv>
	int2_obj.enable();
 796:	ce 01       	movw	r24, r28
 798:	07 96       	adiw	r24, 0x07	; 7
 79a:	64 dd       	rcall	.-1336   	; 0x264 <_ZN6EXTINT6enableEv>
	int3_obj.enable();
 79c:	ce 01       	movw	r24, r28
 79e:	0a 96       	adiw	r24, 0x0a	; 10
 7a0:	61 dd       	rcall	.-1342   	; 0x264 <_ZN6EXTINT6enableEv>
	int4_obj.enable();
 7a2:	ce 01       	movw	r24, r28
 7a4:	0d 96       	adiw	r24, 0x0d	; 13
 7a6:	5e dd       	rcall	.-1348   	; 0x264 <_ZN6EXTINT6enableEv>
	int5_obj.enable();
 7a8:	ce 01       	movw	r24, r28
 7aa:	40 96       	adiw	r24, 0x10	; 16
 7ac:	5b dd       	rcall	.-1354   	; 0x264 <_ZN6EXTINT6enableEv>
	int6_obj.enable();
 7ae:	ce 01       	movw	r24, r28
 7b0:	43 96       	adiw	r24, 0x13	; 19
 7b2:	58 dd       	rcall	.-1360   	; 0x264 <_ZN6EXTINT6enableEv>
	int7_obj.enable();
 7b4:	ce 01       	movw	r24, r28
 7b6:	46 96       	adiw	r24, 0x16	; 22
 7b8:	55 dd       	rcall	.-1366   	; 0x264 <_ZN6EXTINT6enableEv>

	sei();
 7ba:	78 94       	sei
	while(1){                                   /* forever */
		if (uart.has_data()){
 7bc:	81 e1       	ldi	r24, 0x11	; 17
 7be:	92 e0       	ldi	r25, 0x02	; 2
 7c0:	d9 d0       	rcall	.+434    	; 0x974 <_ZN4UART8has_dataEv>
 7c2:	88 23       	and	r24, r24
 7c4:	79 f0       	breq	.+30     	; 0x7e4 <main+0xde>
			uart.put(uart.get());                 /* echo the received character */
 7c6:	81 e1       	ldi	r24, 0x11	; 17
 7c8:	92 e0       	ldi	r25, 0x02	; 2
 7ca:	a9 d0       	rcall	.+338    	; 0x91e <_ZN4UART3getEv>
 7cc:	68 2f       	mov	r22, r24
 7ce:	81 e1       	ldi	r24, 0x11	; 17
 7d0:	92 e0       	ldi	r25, 0x02	; 2
 7d2:	b6 d0       	rcall	.+364    	; 0x940 <_ZN4UART3putEh>
			uart.put((EICRA));
 7d4:	89 e6       	ldi	r24, 0x69	; 105
 7d6:	90 e0       	ldi	r25, 0x00	; 0
 7d8:	fc 01       	movw	r30, r24
 7da:	80 81       	ld	r24, Z
 7dc:	68 2f       	mov	r22, r24
 7de:	81 e1       	ldi	r24, 0x11	; 17
 7e0:	92 e0       	ldi	r25, 0x02	; 2
 7e2:	ae d0       	rcall	.+348    	; 0x940 <_ZN4UART3putEh>
		}
	}

	return 0;
 7e4:	eb cf       	rjmp	.-42     	; 0x7bc <main+0xb6>

000007e6 <_Z41__static_initialization_and_destruction_0ii>:
}
 7e6:	ef 92       	push	r14
 7e8:	0f 93       	push	r16
 7ea:	cf 93       	push	r28
 7ec:	df 93       	push	r29
 7ee:	00 d0       	rcall	.+0      	; 0x7f0 <_Z41__static_initialization_and_destruction_0ii+0xa>
 7f0:	1f 92       	push	r1
 7f2:	cd b7       	in	r28, 0x3d	; 61
 7f4:	de b7       	in	r29, 0x3e	; 62
 7f6:	9a 83       	std	Y+2, r25	; 0x02
 7f8:	89 83       	std	Y+1, r24	; 0x01
 7fa:	7c 83       	std	Y+4, r23	; 0x04
 7fc:	6b 83       	std	Y+3, r22	; 0x03
 7fe:	89 81       	ldd	r24, Y+1	; 0x01
 800:	9a 81       	ldd	r25, Y+2	; 0x02
 802:	01 97       	sbiw	r24, 0x01	; 1
 804:	71 f4       	brne	.+28     	; 0x822 <_Z41__static_initialization_and_destruction_0ii+0x3c>
 806:	8b 81       	ldd	r24, Y+3	; 0x03
 808:	9c 81       	ldd	r25, Y+4	; 0x04
 80a:	01 96       	adiw	r24, 0x01	; 1
 80c:	51 f4       	brne	.+20     	; 0x822 <_Z41__static_initialization_and_destruction_0ii+0x3c>
#include <avr/interrupt.h>
#include "ext.h"
#include "uart.h"


UART uart(19200, UART::DATABITS_8, UART::NONE, UART::STOPBIT_1);
 80e:	e1 2c       	mov	r14, r1
 810:	00 e0       	ldi	r16, 0x00	; 0
 812:	26 e0       	ldi	r18, 0x06	; 6
 814:	40 e0       	ldi	r20, 0x00	; 0
 816:	5b e4       	ldi	r21, 0x4B	; 75
 818:	60 e0       	ldi	r22, 0x00	; 0
 81a:	70 e0       	ldi	r23, 0x00	; 0
 81c:	81 e1       	ldi	r24, 0x11	; 17
 81e:	92 e0       	ldi	r25, 0x02	; 2
 820:	2c d0       	rcall	.+88     	; 0x87a <_ZN4UARTC1EmNS_10DATABITS_tENS_8PARITY_tENS_10STOPBITS_tE>
 822:	89 81       	ldd	r24, Y+1	; 0x01
 824:	9a 81       	ldd	r25, Y+2	; 0x02
 826:	89 2b       	or	r24, r25
 828:	39 f4       	brne	.+14     	; 0x838 <_Z41__static_initialization_and_destruction_0ii+0x52>
 82a:	8b 81       	ldd	r24, Y+3	; 0x03
 82c:	9c 81       	ldd	r25, Y+4	; 0x04
 82e:	01 96       	adiw	r24, 0x01	; 1
 830:	19 f4       	brne	.+6      	; 0x838 <_Z41__static_initialization_and_destruction_0ii+0x52>
 832:	81 e1       	ldi	r24, 0x11	; 17
 834:	92 e0       	ldi	r25, 0x02	; 2
 836:	66 d0       	rcall	.+204    	; 0x904 <_ZN4UARTD1Ev>
			uart.put((EICRA));
		}
	}

	return 0;
}
 838:	0f 90       	pop	r0
 83a:	0f 90       	pop	r0
 83c:	0f 90       	pop	r0
 83e:	0f 90       	pop	r0
 840:	df 91       	pop	r29
 842:	cf 91       	pop	r28
 844:	0f 91       	pop	r16
 846:	ef 90       	pop	r14
 848:	08 95       	ret

0000084a <_GLOBAL__sub_I_uart>:
 84a:	cf 93       	push	r28
 84c:	df 93       	push	r29
 84e:	cd b7       	in	r28, 0x3d	; 61
 850:	de b7       	in	r29, 0x3e	; 62
 852:	6f ef       	ldi	r22, 0xFF	; 255
 854:	7f ef       	ldi	r23, 0xFF	; 255
 856:	81 e0       	ldi	r24, 0x01	; 1
 858:	90 e0       	ldi	r25, 0x00	; 0
 85a:	c5 df       	rcall	.-118    	; 0x7e6 <_Z41__static_initialization_and_destruction_0ii>
 85c:	df 91       	pop	r29
 85e:	cf 91       	pop	r28
 860:	08 95       	ret

00000862 <_GLOBAL__sub_D_uart>:
 862:	cf 93       	push	r28
 864:	df 93       	push	r29
 866:	cd b7       	in	r28, 0x3d	; 61
 868:	de b7       	in	r29, 0x3e	; 62
 86a:	6f ef       	ldi	r22, 0xFF	; 255
 86c:	7f ef       	ldi	r23, 0xFF	; 255
 86e:	80 e0       	ldi	r24, 0x00	; 0
 870:	90 e0       	ldi	r25, 0x00	; 0
 872:	b9 df       	rcall	.-142    	; 0x7e6 <_Z41__static_initialization_and_destruction_0ii>
 874:	df 91       	pop	r29
 876:	cf 91       	pop	r28
 878:	08 95       	ret

0000087a <_ZN4UARTC1EmNS_10DATABITS_tENS_8PARITY_tENS_10STOPBITS_tE>:

bool UART::_has_data = false;
uint8_t UART::_rx_buffer = 0;
uint8_t UART::_tx_buffer = 0;

UART::UART(uint32_t baud, DATABITS_t db, PARITY_t parity, STOPBITS_t sb) {
 87a:	ef 92       	push	r14
 87c:	0f 93       	push	r16
 87e:	1f 93       	push	r17
 880:	cf 93       	push	r28
 882:	df 93       	push	r29
 884:	cd b7       	in	r28, 0x3d	; 61
 886:	de b7       	in	r29, 0x3e	; 62
 888:	2d 97       	sbiw	r28, 0x0d	; 13
 88a:	0f b6       	in	r0, 0x3f	; 63
 88c:	f8 94       	cli
 88e:	de bf       	out	0x3e, r29	; 62
 890:	0f be       	out	0x3f, r0	; 63
 892:	cd bf       	out	0x3d, r28	; 61
 894:	9a 83       	std	Y+2, r25	; 0x02
 896:	89 83       	std	Y+1, r24	; 0x01
 898:	4b 83       	std	Y+3, r20	; 0x03
 89a:	5c 83       	std	Y+4, r21	; 0x04
 89c:	6d 83       	std	Y+5, r22	; 0x05
 89e:	7e 83       	std	Y+6, r23	; 0x06
 8a0:	2f 83       	std	Y+7, r18	; 0x07
 8a2:	08 87       	std	Y+8, r16	; 0x08
 8a4:	e9 86       	std	Y+9, r14	; 0x09
	_has_data = false;
 8a6:	10 92 12 02 	sts	0x0212, r1	; 0x800212 <_ZN4UART9_has_dataE>
	UBRR0 = (16000000/16/baud-1);
 8aa:	04 ec       	ldi	r16, 0xC4	; 196
 8ac:	10 e0       	ldi	r17, 0x00	; 0
 8ae:	80 e4       	ldi	r24, 0x40	; 64
 8b0:	92 e4       	ldi	r25, 0x42	; 66
 8b2:	af e0       	ldi	r26, 0x0F	; 15
 8b4:	b0 e0       	ldi	r27, 0x00	; 0
 8b6:	2b 81       	ldd	r18, Y+3	; 0x03
 8b8:	3c 81       	ldd	r19, Y+4	; 0x04
 8ba:	4d 81       	ldd	r20, Y+5	; 0x05
 8bc:	5e 81       	ldd	r21, Y+6	; 0x06
 8be:	bc 01       	movw	r22, r24
 8c0:	cd 01       	movw	r24, r26
 8c2:	ef d0       	rcall	.+478    	; 0xaa2 <__udivmodsi4>
 8c4:	da 01       	movw	r26, r20
 8c6:	c9 01       	movw	r24, r18
 8c8:	01 97       	sbiw	r24, 0x01	; 1
 8ca:	f8 01       	movw	r30, r16
 8cc:	91 83       	std	Z+1, r25	; 0x01
 8ce:	80 83       	st	Z, r24
	UCSR0B = (1<<RXEN0)|(1<<TXEN0)|(1<<RXCIE0);
 8d0:	81 ec       	ldi	r24, 0xC1	; 193
 8d2:	90 e0       	ldi	r25, 0x00	; 0
 8d4:	28 e9       	ldi	r18, 0x98	; 152
 8d6:	fc 01       	movw	r30, r24
 8d8:	20 83       	st	Z, r18
	UCSR0C = db|parity|sb;
 8da:	82 ec       	ldi	r24, 0xC2	; 194
 8dc:	90 e0       	ldi	r25, 0x00	; 0
 8de:	3f 81       	ldd	r19, Y+7	; 0x07
 8e0:	28 85       	ldd	r18, Y+8	; 0x08
 8e2:	32 2b       	or	r19, r18
 8e4:	29 85       	ldd	r18, Y+9	; 0x09
 8e6:	23 2b       	or	r18, r19
 8e8:	fc 01       	movw	r30, r24
 8ea:	20 83       	st	Z, r18
}
 8ec:	2d 96       	adiw	r28, 0x0d	; 13
 8ee:	0f b6       	in	r0, 0x3f	; 63
 8f0:	f8 94       	cli
 8f2:	de bf       	out	0x3e, r29	; 62
 8f4:	0f be       	out	0x3f, r0	; 63
 8f6:	cd bf       	out	0x3d, r28	; 61
 8f8:	df 91       	pop	r29
 8fa:	cf 91       	pop	r28
 8fc:	1f 91       	pop	r17
 8fe:	0f 91       	pop	r16
 900:	ef 90       	pop	r14
 902:	08 95       	ret

00000904 <_ZN4UARTD1Ev>:

UART::~UART() {}
 904:	cf 93       	push	r28
 906:	df 93       	push	r29
 908:	1f 92       	push	r1
 90a:	1f 92       	push	r1
 90c:	cd b7       	in	r28, 0x3d	; 61
 90e:	de b7       	in	r29, 0x3e	; 62
 910:	9a 83       	std	Y+2, r25	; 0x02
 912:	89 83       	std	Y+1, r24	; 0x01
 914:	0f 90       	pop	r0
 916:	0f 90       	pop	r0
 918:	df 91       	pop	r29
 91a:	cf 91       	pop	r28
 91c:	08 95       	ret

0000091e <_ZN4UART3getEv>:

uint8_t UART::get() {
 91e:	cf 93       	push	r28
 920:	df 93       	push	r29
 922:	1f 92       	push	r1
 924:	1f 92       	push	r1
 926:	cd b7       	in	r28, 0x3d	; 61
 928:	de b7       	in	r29, 0x3e	; 62
 92a:	9a 83       	std	Y+2, r25	; 0x02
 92c:	89 83       	std	Y+1, r24	; 0x01
	_has_data = false;
 92e:	10 92 12 02 	sts	0x0212, r1	; 0x800212 <_ZN4UART9_has_dataE>
	return _rx_buffer;
 932:	80 91 13 02 	lds	r24, 0x0213	; 0x800213 <_ZN4UART10_rx_bufferE>
}
 936:	0f 90       	pop	r0
 938:	0f 90       	pop	r0
 93a:	df 91       	pop	r29
 93c:	cf 91       	pop	r28
 93e:	08 95       	ret

00000940 <_ZN4UART3putEh>:

void UART::put(uint8_t data) {
 940:	cf 93       	push	r28
 942:	df 93       	push	r29
 944:	00 d0       	rcall	.+0      	; 0x946 <_ZN4UART3putEh+0x6>
 946:	cd b7       	in	r28, 0x3d	; 61
 948:	de b7       	in	r29, 0x3e	; 62
 94a:	9a 83       	std	Y+2, r25	; 0x02
 94c:	89 83       	std	Y+1, r24	; 0x01
 94e:	6b 83       	std	Y+3, r22	; 0x03
	_tx_buffer = data;
 950:	8b 81       	ldd	r24, Y+3	; 0x03
 952:	80 93 14 02 	sts	0x0214, r24	; 0x800214 <_ZN4UART10_tx_bufferE>
	UCSR0B |= (1<<UDRIE0);
 956:	81 ec       	ldi	r24, 0xC1	; 193
 958:	90 e0       	ldi	r25, 0x00	; 0
 95a:	21 ec       	ldi	r18, 0xC1	; 193
 95c:	30 e0       	ldi	r19, 0x00	; 0
 95e:	f9 01       	movw	r30, r18
 960:	20 81       	ld	r18, Z
 962:	20 62       	ori	r18, 0x20	; 32
 964:	fc 01       	movw	r30, r24
 966:	20 83       	st	Z, r18
}
 968:	0f 90       	pop	r0
 96a:	0f 90       	pop	r0
 96c:	0f 90       	pop	r0
 96e:	df 91       	pop	r29
 970:	cf 91       	pop	r28
 972:	08 95       	ret

00000974 <_ZN4UART8has_dataEv>:


bool UART::has_data(){
 974:	cf 93       	push	r28
 976:	df 93       	push	r29
 978:	1f 92       	push	r1
 97a:	1f 92       	push	r1
 97c:	cd b7       	in	r28, 0x3d	; 61
 97e:	de b7       	in	r29, 0x3e	; 62
 980:	9a 83       	std	Y+2, r25	; 0x02
 982:	89 83       	std	Y+1, r24	; 0x01
	return _has_data;
 984:	80 91 12 02 	lds	r24, 0x0212	; 0x800212 <_ZN4UART9_has_dataE>
}
 988:	0f 90       	pop	r0
 98a:	0f 90       	pop	r0
 98c:	df 91       	pop	r29
 98e:	cf 91       	pop	r28
 990:	08 95       	ret

00000992 <_ZN4UART14rx_isr_handlerEv>:


void UART::rx_isr_handler(){
 992:	cf 93       	push	r28
 994:	df 93       	push	r29
 996:	cd b7       	in	r28, 0x3d	; 61
 998:	de b7       	in	r29, 0x3e	; 62
	_rx_buffer = UDR0;
 99a:	86 ec       	ldi	r24, 0xC6	; 198
 99c:	90 e0       	ldi	r25, 0x00	; 0
 99e:	fc 01       	movw	r30, r24
 9a0:	80 81       	ld	r24, Z
 9a2:	80 93 13 02 	sts	0x0213, r24	; 0x800213 <_ZN4UART10_rx_bufferE>
	_has_data = true;
 9a6:	81 e0       	ldi	r24, 0x01	; 1
 9a8:	80 93 12 02 	sts	0x0212, r24	; 0x800212 <_ZN4UART9_has_dataE>
}
 9ac:	df 91       	pop	r29
 9ae:	cf 91       	pop	r28
 9b0:	08 95       	ret

000009b2 <_ZN4UART14tx_isr_handlerEv>:

void UART::tx_isr_handler(){
 9b2:	cf 93       	push	r28
 9b4:	df 93       	push	r29
 9b6:	cd b7       	in	r28, 0x3d	; 61
 9b8:	de b7       	in	r29, 0x3e	; 62
	UDR0 = _tx_buffer;
 9ba:	86 ec       	ldi	r24, 0xC6	; 198
 9bc:	90 e0       	ldi	r25, 0x00	; 0
 9be:	20 91 14 02 	lds	r18, 0x0214	; 0x800214 <_ZN4UART10_tx_bufferE>
 9c2:	fc 01       	movw	r30, r24
 9c4:	20 83       	st	Z, r18
	UCSR0B &= ~(1<<UDRIE0);
 9c6:	81 ec       	ldi	r24, 0xC1	; 193
 9c8:	90 e0       	ldi	r25, 0x00	; 0
 9ca:	21 ec       	ldi	r18, 0xC1	; 193
 9cc:	30 e0       	ldi	r19, 0x00	; 0
 9ce:	f9 01       	movw	r30, r18
 9d0:	20 81       	ld	r18, Z
 9d2:	2f 7d       	andi	r18, 0xDF	; 223
 9d4:	fc 01       	movw	r30, r24
 9d6:	20 83       	st	Z, r18
}
 9d8:	df 91       	pop	r29
 9da:	cf 91       	pop	r28
 9dc:	08 95       	ret

000009de <__vector_25>:

ISR(USART0_RX_vect){
 9de:	1f 92       	push	r1
 9e0:	0f 92       	push	r0
 9e2:	00 90 5f 00 	lds	r0, 0x005F	; 0x80005f <__TEXT_REGION_LENGTH__+0x70005f>
 9e6:	0f 92       	push	r0
 9e8:	11 24       	eor	r1, r1
 9ea:	00 90 5b 00 	lds	r0, 0x005B	; 0x80005b <__TEXT_REGION_LENGTH__+0x70005b>
 9ee:	0f 92       	push	r0
 9f0:	2f 93       	push	r18
 9f2:	3f 93       	push	r19
 9f4:	4f 93       	push	r20
 9f6:	5f 93       	push	r21
 9f8:	6f 93       	push	r22
 9fa:	7f 93       	push	r23
 9fc:	8f 93       	push	r24
 9fe:	9f 93       	push	r25
 a00:	af 93       	push	r26
 a02:	bf 93       	push	r27
 a04:	ef 93       	push	r30
 a06:	ff 93       	push	r31
 a08:	cf 93       	push	r28
 a0a:	df 93       	push	r29
 a0c:	cd b7       	in	r28, 0x3d	; 61
 a0e:	de b7       	in	r29, 0x3e	; 62
	UART::rx_isr_handler();
 a10:	c0 df       	rcall	.-128    	; 0x992 <_ZN4UART14rx_isr_handlerEv>
}
 a12:	df 91       	pop	r29
 a14:	cf 91       	pop	r28
 a16:	ff 91       	pop	r31
 a18:	ef 91       	pop	r30
 a1a:	bf 91       	pop	r27
 a1c:	af 91       	pop	r26
 a1e:	9f 91       	pop	r25
 a20:	8f 91       	pop	r24
 a22:	7f 91       	pop	r23
 a24:	6f 91       	pop	r22
 a26:	5f 91       	pop	r21
 a28:	4f 91       	pop	r20
 a2a:	3f 91       	pop	r19
 a2c:	2f 91       	pop	r18
 a2e:	0f 90       	pop	r0
 a30:	00 92 5b 00 	sts	0x005B, r0	; 0x80005b <__TEXT_REGION_LENGTH__+0x70005b>
 a34:	0f 90       	pop	r0
 a36:	00 92 5f 00 	sts	0x005F, r0	; 0x80005f <__TEXT_REGION_LENGTH__+0x70005f>
 a3a:	0f 90       	pop	r0
 a3c:	1f 90       	pop	r1
 a3e:	18 95       	reti

00000a40 <__vector_26>:

ISR(USART0_UDRE_vect){
 a40:	1f 92       	push	r1
 a42:	0f 92       	push	r0
 a44:	00 90 5f 00 	lds	r0, 0x005F	; 0x80005f <__TEXT_REGION_LENGTH__+0x70005f>
 a48:	0f 92       	push	r0
 a4a:	11 24       	eor	r1, r1
 a4c:	00 90 5b 00 	lds	r0, 0x005B	; 0x80005b <__TEXT_REGION_LENGTH__+0x70005b>
 a50:	0f 92       	push	r0
 a52:	2f 93       	push	r18
 a54:	3f 93       	push	r19
 a56:	4f 93       	push	r20
 a58:	5f 93       	push	r21
 a5a:	6f 93       	push	r22
 a5c:	7f 93       	push	r23
 a5e:	8f 93       	push	r24
 a60:	9f 93       	push	r25
 a62:	af 93       	push	r26
 a64:	bf 93       	push	r27
 a66:	ef 93       	push	r30
 a68:	ff 93       	push	r31
 a6a:	cf 93       	push	r28
 a6c:	df 93       	push	r29
 a6e:	cd b7       	in	r28, 0x3d	; 61
 a70:	de b7       	in	r29, 0x3e	; 62
	UART::tx_isr_handler();
 a72:	9f df       	rcall	.-194    	; 0x9b2 <_ZN4UART14tx_isr_handlerEv>
}
 a74:	df 91       	pop	r29
 a76:	cf 91       	pop	r28
 a78:	ff 91       	pop	r31
 a7a:	ef 91       	pop	r30
 a7c:	bf 91       	pop	r27
 a7e:	af 91       	pop	r26
 a80:	9f 91       	pop	r25
 a82:	8f 91       	pop	r24
 a84:	7f 91       	pop	r23
 a86:	6f 91       	pop	r22
 a88:	5f 91       	pop	r21
 a8a:	4f 91       	pop	r20
 a8c:	3f 91       	pop	r19
 a8e:	2f 91       	pop	r18
 a90:	0f 90       	pop	r0
 a92:	00 92 5b 00 	sts	0x005B, r0	; 0x80005b <__TEXT_REGION_LENGTH__+0x70005b>
 a96:	0f 90       	pop	r0
 a98:	00 92 5f 00 	sts	0x005F, r0	; 0x80005f <__TEXT_REGION_LENGTH__+0x70005f>
 a9c:	0f 90       	pop	r0
 a9e:	1f 90       	pop	r1
 aa0:	18 95       	reti

00000aa2 <__udivmodsi4>:
 aa2:	a1 e2       	ldi	r26, 0x21	; 33
 aa4:	1a 2e       	mov	r1, r26
 aa6:	aa 1b       	sub	r26, r26
 aa8:	bb 1b       	sub	r27, r27
 aaa:	fd 01       	movw	r30, r26
 aac:	0d c0       	rjmp	.+26     	; 0xac8 <__udivmodsi4_ep>

00000aae <__udivmodsi4_loop>:
 aae:	aa 1f       	adc	r26, r26
 ab0:	bb 1f       	adc	r27, r27
 ab2:	ee 1f       	adc	r30, r30
 ab4:	ff 1f       	adc	r31, r31
 ab6:	a2 17       	cp	r26, r18
 ab8:	b3 07       	cpc	r27, r19
 aba:	e4 07       	cpc	r30, r20
 abc:	f5 07       	cpc	r31, r21
 abe:	20 f0       	brcs	.+8      	; 0xac8 <__udivmodsi4_ep>
 ac0:	a2 1b       	sub	r26, r18
 ac2:	b3 0b       	sbc	r27, r19
 ac4:	e4 0b       	sbc	r30, r20
 ac6:	f5 0b       	sbc	r31, r21

00000ac8 <__udivmodsi4_ep>:
 ac8:	66 1f       	adc	r22, r22
 aca:	77 1f       	adc	r23, r23
 acc:	88 1f       	adc	r24, r24
 ace:	99 1f       	adc	r25, r25
 ad0:	1a 94       	dec	r1
 ad2:	69 f7       	brne	.-38     	; 0xaae <__udivmodsi4_loop>
 ad4:	60 95       	com	r22
 ad6:	70 95       	com	r23
 ad8:	80 95       	com	r24
 ada:	90 95       	com	r25
 adc:	9b 01       	movw	r18, r22
 ade:	ac 01       	movw	r20, r24
 ae0:	bd 01       	movw	r22, r26
 ae2:	cf 01       	movw	r24, r30
 ae4:	08 95       	ret

00000ae6 <__tablejump2__>:
 ae6:	ee 0f       	add	r30, r30
 ae8:	ff 1f       	adc	r31, r31
 aea:	88 1f       	adc	r24, r24
 aec:	8b bf       	out	0x3b, r24	; 59
 aee:	07 90       	elpm	r0, Z+
 af0:	f6 91       	elpm	r31, Z
 af2:	e0 2d       	mov	r30, r0
 af4:	19 94       	eijmp

00000af6 <__do_global_dtors>:
 af6:	10 e0       	ldi	r17, 0x00	; 0
 af8:	c3 e7       	ldi	r28, 0x73	; 115
 afa:	d0 e0       	ldi	r29, 0x00	; 0
 afc:	00 e0       	ldi	r16, 0x00	; 0
 afe:	05 c0       	rjmp	.+10     	; 0xb0a <__do_global_dtors+0x14>
 b00:	80 2f       	mov	r24, r16
 b02:	fe 01       	movw	r30, r28
 b04:	f0 df       	rcall	.-32     	; 0xae6 <__tablejump2__>
 b06:	21 96       	adiw	r28, 0x01	; 1
 b08:	01 1d       	adc	r16, r1
 b0a:	c4 37       	cpi	r28, 0x74	; 116
 b0c:	d1 07       	cpc	r29, r17
 b0e:	80 e0       	ldi	r24, 0x00	; 0
 b10:	08 07       	cpc	r16, r24
 b12:	b1 f7       	brne	.-20     	; 0xb00 <__do_global_dtors+0xa>
 b14:	f8 94       	cli

00000b16 <__stop_program>:
 b16:	ff cf       	rjmp	.-2      	; 0xb16 <__stop_program>
